; Function Attrs: nounwind uwtable
define hidden void @je_bin_postfork_parent(ptr noundef %0, ptr noundef %1, i1 noundef zeroext %2) local_unnamed_addr #1 {
  tail call void @je_malloc_mutex_postfork_parent(ptr noundef %0, ptr noundef %1) #6
  br i1 %2, label %4, label %6

4:                                                ; preds = %3
  %5 = getelementptr inbounds nuw i8, ptr %1, i64 256
  tail call void @je_batcher_postfork_parent(ptr noundef null, ptr noundef nonnull %5) #6
  br label %6

6:                                                ; preds = %4, %3
  ret void
}